(lp0
(S'cppflags'
p1
ccopy_reg
_reconstructor
p2
(cino.utils
SpaceList
p3
c__builtin__
list
p4
(lp5
S'-mmcu=atmega328p'
p6
aS'-DF_CPU=16000000L'
p7
aS'-DARDUINO=105'
p8
aS'-I/usr/share/arduino/hardware/arduino/cores/arduino'
p9
aS'-ffunction-sections'
p10
aS'-fdata-sections'
p11
aS'-g'
p12
aS'-Os'
p13
aS'-w'
p14
aS'-I/usr/share/arduino/hardware/arduino/variants/standard'
p15
aS'-I/usr/share/arduino/hardware/arduino/cores/arduino'
p16
aS'-I/usr/share/arduino/hardware/arduino/cores/arduino/avr-libc'
p17
atp18
Rp19
tp20
a(S'cc'
p21
S'/usr/share/arduino/hardware/tools/avr/bin/avr-gcc'
p22
tp23
a(S'version.txt'
p24
S'/usr/share/arduino/lib/version.txt'
p25
tp26
a(S'used_libs'
p27
(lp28
S'/usr/share/arduino/hardware/arduino/cores/arduino'
p29
atp30
a(S'cxx'
p31
S'/usr/share/arduino/hardware/tools/avr/bin/avr-g++'
p32
tp33
a(S'make'
p34
S'/usr/share/arduino/hardware/tools/avr/bin/make'
p35
tp36
a(S'build_dir'
p37
S'.build/uno'
p38
tp39
a(S'arduino_core_dir'
p40
g29
tp41
a(S'boards.txt'
p42
(lp43
S'/usr/share/arduino/hardware/arduino/boards.txt'
p44
atp45
a(S'cxxflags'
p46
g2
(g3
g4
(lp47
S'-fno-exceptions'
p48
atp49
Rp50
tp51
a(S'arduino_variants_dir'
p52
S'/usr/share/arduino/hardware/arduino/variants'
p53
tp54
a(S'deps'
p55
g2
(g3
g4
(lp56
S'.build/uno/src/dependencies.d'
p57
aS'.build/uno/arduino/dependencies.d'
p58
atp59
Rp60
tp61
a(S'ar'
p62
S'/usr/share/arduino/hardware/tools/avr/bin/avr-ar'
p63
tp64
a(S'names'
p65
(dp66
S'cpp'
p67
S'%s.cpp'
p68
sS'obj'
p69
S'%s.o'
p70
sS'deps'
p71
S'%s.d'
p72
sS'lib'
p73
S'lib%s.a'
p74
stp75
a(S'cflags'
p76
g2
(g3
g4
(lp77
tp78
Rp79
tp80
a(S'arduino_libraries_dir'
p81
S'/usr/share/arduino/libraries'
p82
tp83
a(S'arduino_lib_version'
p84
g2
(cino.environment
Version
p85
c__builtin__
tuple
p86
(I1
I0
I5
tp87
tp88
Rp89
tp90
a(S'objcopy'
p91
S'/usr/share/arduino/hardware/tools/avr/bin/avr-objcopy'
p92
tp93
a(S'board_models'
p94
cino.environment
BoardModels
p95
((lp96
(lp97
S'uno'
p98
a(dp99
S'build'
p100
(dp101
S'core'
p102
S'arduino'
p103
sS'mcu'
p104
S'atmega328p'
p105
sS'f_cpu'
p106
S'16000000L'
p107
sS'variant'
p108
S'standard'
p109
ssS'bootloader'
p110
(dp111
S'extended_fuses'
p112
S'0x05'
p113
sS'high_fuses'
p114
S'0xde'
p115
sS'low_fuses'
p116
S'0xff'
p117
sS'lock_bits'
p118
S'0x0F'
p119
sS'file'
p120
S'optiboot_atmega328.hex'
p121
sS'path'
p122
S'optiboot'
p123
sS'unlock_bits'
p124
S'0x3F'
p125
ssS'upload'
p126
(dp127
S'speed'
p128
S'115200'
p129
sS'maximum_size'
p130
S'32256'
p131
sS'protocol'
p132
S'arduino'
p133
ssS'name'
p134
S'Arduino Uno'
p135
sS'_coredir'
p136
S'/usr/share/arduino/hardware/arduino'
p137
saa(lp138
S'atmega328'
p139
a(dp140
S'build'
p141
(dp142
S'core'
p143
S'arduino'
p144
sS'mcu'
p145
S'atmega328p'
p146
sS'f_cpu'
p147
S'16000000L'
p148
sS'variant'
p149
S'standard'
p150
ssS'bootloader'
p151
(dp152
S'extended_fuses'
p153
S'0x05'
p154
sS'high_fuses'
p155
S'0xDA'
p156
sS'low_fuses'
p157
S'0xFF'
p158
sS'lock_bits'
p159
S'0x0F'
p160
sS'file'
p161
S'ATmegaBOOT_168_atmega328.hex'
p162
sS'path'
p163
S'atmega'
p164
sS'unlock_bits'
p165
S'0x3F'
p166
ssS'upload'
p167
(dp168
S'speed'
p169
S'57600'
p170
sS'maximum_size'
p171
S'30720'
p172
sS'protocol'
p173
S'arduino'
p174
ssS'name'
p175
S'Arduino Duemilanove w/ ATmega328'
p176
sg136
S'/usr/share/arduino/hardware/arduino'
p177
saa(lp178
S'diecimila'
p179
a(dp180
S'build'
p181
(dp182
S'core'
p183
S'arduino'
p184
sS'mcu'
p185
S'atmega168'
p186
sS'f_cpu'
p187
S'16000000L'
p188
sS'variant'
p189
S'standard'
p190
ssS'bootloader'
p191
(dp192
S'extended_fuses'
p193
S'0x00'
p194
sS'high_fuses'
p195
S'0xdd'
p196
sS'low_fuses'
p197
S'0xff'
p198
sS'lock_bits'
p199
S'0x0F'
p200
sS'file'
p201
S'ATmegaBOOT_168_diecimila.hex'
p202
sS'path'
p203
S'atmega'
p204
sS'unlock_bits'
p205
S'0x3F'
p206
ssS'upload'
p207
(dp208
S'speed'
p209
S'19200'
p210
sS'maximum_size'
p211
S'14336'
p212
sS'protocol'
p213
S'arduino'
p214
ssS'name'
p215
S'Arduino Diecimila or Duemilanove w/ ATmega168'
p216
sg136
S'/usr/share/arduino/hardware/arduino'
p217
saa(lp218
S'nano328'
p219
a(dp220
S'build'
p221
(dp222
S'core'
p223
S'arduino'
p224
sS'mcu'
p225
S'atmega328p'
p226
sS'f_cpu'
p227
S'16000000L'
p228
sS'variant'
p229
S'eightanaloginputs'
p230
ssS'bootloader'
p231
(dp232
S'extended_fuses'
p233
S'0x05'
p234
sS'high_fuses'
p235
S'0xDA'
p236
sS'low_fuses'
p237
S'0xFF'
p238
sS'lock_bits'
p239
S'0x0F'
p240
sS'file'
p241
S'ATmegaBOOT_168_atmega328.hex'
p242
sS'path'
p243
S'atmega'
p244
sS'unlock_bits'
p245
S'0x3F'
p246
ssS'upload'
p247
(dp248
S'speed'
p249
S'57600'
p250
sS'maximum_size'
p251
S'30720'
p252
sS'protocol'
p253
S'arduino'
p254
ssS'name'
p255
S'Arduino Nano w/ ATmega328'
p256
sg136
S'/usr/share/arduino/hardware/arduino'
p257
saa(lp258
S'nano'
p259
a(dp260
S'build'
p261
(dp262
S'core'
p263
S'arduino'
p264
sS'mcu'
p265
S'atmega168'
p266
sS'f_cpu'
p267
S'16000000L'
p268
sS'variant'
p269
S'eightanaloginputs'
p270
ssS'bootloader'
p271
(dp272
S'extended_fuses'
p273
S'0x00'
p274
sS'high_fuses'
p275
S'0xdd'
p276
sS'low_fuses'
p277
S'0xff'
p278
sS'lock_bits'
p279
S'0x0F'
p280
sS'file'
p281
S'ATmegaBOOT_168_diecimila.hex'
p282
sS'path'
p283
S'atmega'
p284
sS'unlock_bits'
p285
S'0x3F'
p286
ssS'upload'
p287
(dp288
S'speed'
p289
S'19200'
p290
sS'maximum_size'
p291
S'14336'
p292
sS'protocol'
p293
S'arduino'
p294
ssS'name'
p295
S'Arduino Nano w/ ATmega168'
p296
sg136
S'/usr/share/arduino/hardware/arduino'
p297
saa(lp298
S'mega2560'
p299
a(dp300
S'build'
p301
(dp302
S'core'
p303
S'arduino'
p304
sS'mcu'
p305
S'atmega2560'
p306
sS'f_cpu'
p307
S'16000000L'
p308
sS'variant'
p309
S'mega'
p310
ssS'bootloader'
p311
(dp312
S'extended_fuses'
p313
S'0xFD'
p314
sS'high_fuses'
p315
S'0xD8'
p316
sS'low_fuses'
p317
S'0xFF'
p318
sS'lock_bits'
p319
S'0x0F'
p320
sS'file'
p321
S'stk500boot_v2_mega2560.hex'
p322
sS'path'
p323
S'stk500v2'
p324
sS'unlock_bits'
p325
S'0x3F'
p326
ssS'upload'
p327
(dp328
S'speed'
p329
S'115200'
p330
sS'maximum_size'
p331
S'258048'
p332
sS'protocol'
p333
S'wiring'
p334
ssS'name'
p335
S'Arduino Mega 2560 or Mega ADK'
p336
sg136
S'/usr/share/arduino/hardware/arduino'
p337
saa(lp338
S'mega'
p339
a(dp340
S'build'
p341
(dp342
S'core'
p343
S'arduino'
p344
sS'mcu'
p345
S'atmega1280'
p346
sS'f_cpu'
p347
S'16000000L'
p348
sS'variant'
p349
S'mega'
p350
ssS'bootloader'
p351
(dp352
S'extended_fuses'
p353
S'0xF5'
p354
sS'high_fuses'
p355
S'0xDA'
p356
sS'low_fuses'
p357
S'0xFF'
p358
sS'lock_bits'
p359
S'0x0F'
p360
sS'file'
p361
S'ATmegaBOOT_168_atmega1280.hex'
p362
sS'path'
p363
S'atmega'
p364
sS'unlock_bits'
p365
S'0x3F'
p366
ssS'upload'
p367
(dp368
S'speed'
p369
S'57600'
p370
sS'maximum_size'
p371
S'126976'
p372
sS'protocol'
p373
S'arduino'
p374
ssS'name'
p375
S'Arduino Mega (ATmega1280)'
p376
sg136
S'/usr/share/arduino/hardware/arduino'
p377
saa(lp378
S'leonardo'
p379
a(dp380
S'build'
p381
(dp382
S'core'
p383
S'arduino'
p384
sS'f_cpu'
p385
S'16000000L'
p386
sS'vid'
p387
S'0x2341'
p388
sS'pid'
p389
S'0x8036'
p390
sS'variant'
p391
S'leonardo'
p392
sS'mcu'
p393
S'atmega32u4'
p394
ssS'bootloader'
p395
(dp396
S'extended_fuses'
p397
S'0xcb'
p398
sS'high_fuses'
p399
S'0xd8'
p400
sS'low_fuses'
p401
S'0xff'
p402
sS'lock_bits'
p403
S'0x2F'
p404
sS'file'
p405
S'Caterina-Leonardo.hex'
p406
sS'path'
p407
S'caterina'
p408
sS'unlock_bits'
p409
S'0x3F'
p410
ssS'upload'
p411
(dp412
S'speed'
p413
S'57600'
p414
sS'maximum_size'
p415
S'28672'
p416
sS'protocol'
p417
S'avr109'
p418
sS'disable_flushing'
p419
S'true'
p420
ssS'name'
p421
S'Arduino Leonardo'
p422
sg136
S'/usr/share/arduino/hardware/arduino'
p423
saa(lp424
S'esplora'
p425
a(dp426
S'build'
p427
(dp428
S'core'
p429
S'arduino'
p430
sS'f_cpu'
p431
S'16000000L'
p432
sS'vid'
p433
S'0x2341'
p434
sS'pid'
p435
S'0x803C'
p436
sS'variant'
p437
S'leonardo'
p438
sS'mcu'
p439
S'atmega32u4'
p440
ssS'bootloader'
p441
(dp442
S'extended_fuses'
p443
S'0xcb'
p444
sS'high_fuses'
p445
S'0xd8'
p446
sS'low_fuses'
p447
S'0xff'
p448
sS'lock_bits'
p449
S'0x2F'
p450
sS'file'
p451
S'Caterina-Esplora.hex'
p452
sS'path'
p453
S'caterina'
p454
sS'unlock_bits'
p455
S'0x3F'
p456
ssS'upload'
p457
(dp458
S'speed'
p459
S'57600'
p460
sS'maximum_size'
p461
S'28672'
p462
sS'protocol'
p463
S'avr109'
p464
sS'disable_flushing'
p465
S'true'
p466
ssS'name'
p467
S'Arduino Esplora'
p468
sg136
S'/usr/share/arduino/hardware/arduino'
p469
saa(lp470
S'micro'
p471
a(dp472
S'build'
p473
(dp474
S'core'
p475
S'arduino'
p476
sS'f_cpu'
p477
S'16000000L'
p478
sS'vid'
p479
S'0x2341'
p480
sS'pid'
p481
S'0x8037'
p482
sS'variant'
p483
S'micro'
p484
sS'mcu'
p485
S'atmega32u4'
p486
ssS'bootloader'
p487
(dp488
S'extended_fuses'
p489
S'0xcb'
p490
sS'high_fuses'
p491
S'0xd8'
p492
sS'low_fuses'
p493
S'0xff'
p494
sS'lock_bits'
p495
S'0x2F'
p496
sS'file'
p497
S'Caterina-Micro.hex'
p498
sS'path'
p499
S'caterina'
p500
sS'unlock_bits'
p501
S'0x3F'
p502
ssS'upload'
p503
(dp504
S'speed'
p505
S'57600'
p506
sS'maximum_size'
p507
S'28672'
p508
sS'protocol'
p509
S'avr109'
p510
sS'disable_flushing'
p511
S'true'
p512
ssS'name'
p513
S'Arduino Micro'
p514
sg136
S'/usr/share/arduino/hardware/arduino'
p515
saa(lp516
S'mini328'
p517
a(dp518
S'build'
p519
(dp520
S'core'
p521
S'arduino'
p522
sS'mcu'
p523
S'atmega328p'
p524
sS'f_cpu'
p525
S'16000000L'
p526
sS'variant'
p527
S'eightanaloginputs'
p528
ssS'bootloader'
p529
(dp530
S'extended_fuses'
p531
S'0x05'
p532
sS'high_fuses'
p533
S'0xd8'
p534
sS'low_fuses'
p535
S'0xff'
p536
sS'lock_bits'
p537
S'0x0F'
p538
sS'file'
p539
S'optiboot_atmega328-Mini.hex'
p540
sS'path'
p541
S'optiboot'
p542
sS'unlock_bits'
p543
S'0x3F'
p544
ssS'upload'
p545
(dp546
S'speed'
p547
S'115200'
p548
sS'maximum_size'
p549
S'28672'
p550
sS'protocol'
p551
S'arduino'
p552
ssS'name'
p553
S'Arduino Mini w/ ATmega328'
p554
sg136
S'/usr/share/arduino/hardware/arduino'
p555
saa(lp556
S'mini'
p557
a(dp558
S'build'
p559
(dp560
S'core'
p561
S'arduino'
p562
sS'mcu'
p563
S'atmega168'
p564
sS'f_cpu'
p565
S'16000000L'
p566
sS'variant'
p567
S'eightanaloginputs'
p568
ssS'bootloader'
p569
(dp570
S'extended_fuses'
p571
S'0x00'
p572
sS'high_fuses'
p573
S'0xdd'
p574
sS'low_fuses'
p575
S'0xff'
p576
sS'lock_bits'
p577
S'0x0F'
p578
sS'file'
p579
S'ATmegaBOOT_168_ng.hex'
p580
sS'path'
p581
S'atmega'
p582
sS'unlock_bits'
p583
S'0x3F'
p584
ssS'upload'
p585
(dp586
S'speed'
p587
S'19200'
p588
sS'maximum_size'
p589
S'14336'
p590
sS'protocol'
p591
S'arduino'
p592
ssS'name'
p593
S'Arduino Mini w/ ATmega168'
p594
sg136
S'/usr/share/arduino/hardware/arduino'
p595
saa(lp596
S'ethernet'
p597
a(dp598
S'build'
p599
(dp600
S'f_cpu'
p601
S'16000000L'
p602
sS'mcu'
p603
S'atmega328p'
p604
sS'variant'
p605
S'standard'
p606
sS'core'
p607
S'arduino'
p608
ssS'bootloader'
p609
(dp610
S'extended_fuses'
p611
S'0x05'
p612
sS'high_fuses'
p613
S'0xde'
p614
sS'low_fuses'
p615
S'0xff'
p616
sS'lock_bits'
p617
S'0x0F'
p618
sS'file'
p619
S'optiboot_atmega328.hex'
p620
sS'path'
p621
S'optiboot'
p622
sS'unlock_bits'
p623
S'0x3F'
p624
ssS'upload'
p625
(dp626
S'speed'
p627
S'115200'
p628
sS'maximum_size'
p629
S'32256'
p630
sS'protocol'
p631
S'arduino'
p632
ssS'name'
p633
S'Arduino Ethernet'
p634
sg136
S'/usr/share/arduino/hardware/arduino'
p635
saa(lp636
S'fio'
p637
a(dp638
S'build'
p639
(dp640
S'core'
p641
S'arduino'
p642
sS'mcu'
p643
S'atmega328p'
p644
sS'f_cpu'
p645
S'8000000L'
p646
sS'variant'
p647
S'eightanaloginputs'
p648
ssS'bootloader'
p649
(dp650
S'extended_fuses'
p651
S'0x05'
p652
sS'high_fuses'
p653
S'0xDA'
p654
sS'low_fuses'
p655
S'0xFF'
p656
sS'lock_bits'
p657
S'0x0F'
p658
sS'file'
p659
S'ATmegaBOOT_168_atmega328_pro_8MHz.hex'
p660
sS'path'
p661
S'arduino:atmega'
p662
sS'unlock_bits'
p663
S'0x3F'
p664
ssS'upload'
p665
(dp666
S'speed'
p667
S'57600'
p668
sS'maximum_size'
p669
S'30720'
p670
sS'protocol'
p671
S'arduino'
p672
ssS'name'
p673
S'Arduino Fio'
p674
sg136
S'/usr/share/arduino/hardware/arduino'
p675
saa(lp676
S'bt328'
p677
a(dp678
S'build'
p679
(dp680
S'core'
p681
S'arduino'
p682
sS'mcu'
p683
S'atmega328p'
p684
sS'f_cpu'
p685
S'16000000L'
p686
sS'variant'
p687
S'eightanaloginputs'
p688
ssS'bootloader'
p689
(dp690
S'extended_fuses'
p691
S'0x05'
p692
sS'high_fuses'
p693
S'0xd8'
p694
sS'low_fuses'
p695
S'0xff'
p696
sS'lock_bits'
p697
S'0x0F'
p698
sS'file'
p699
S'ATmegaBOOT_168_atmega328_bt.hex'
p700
sS'path'
p701
S'bt'
p702
sS'unlock_bits'
p703
S'0x3F'
p704
ssS'upload'
p705
(dp706
S'speed'
p707
S'19200'
p708
sS'maximum_size'
p709
S'28672'
p710
sS'protocol'
p711
S'arduino'
p712
sS'disable_flushing'
p713
S'true'
p714
ssS'name'
p715
S'Arduino BT w/ ATmega328'
p716
sg136
S'/usr/share/arduino/hardware/arduino'
p717
saa(lp718
S'bt'
p719
a(dp720
S'build'
p721
(dp722
S'core'
p723
S'arduino'
p724
sS'mcu'
p725
S'atmega168'
p726
sS'f_cpu'
p727
S'16000000L'
p728
sS'variant'
p729
S'eightanaloginputs'
p730
ssS'bootloader'
p731
(dp732
S'extended_fuses'
p733
S'0x00'
p734
sS'high_fuses'
p735
S'0xdd'
p736
sS'low_fuses'
p737
S'0xff'
p738
sS'lock_bits'
p739
S'0x0F'
p740
sS'file'
p741
S'ATmegaBOOT_168.hex'
p742
sS'path'
p743
S'bt'
p744
sS'unlock_bits'
p745
S'0x3F'
p746
ssS'upload'
p747
(dp748
S'speed'
p749
S'19200'
p750
sS'maximum_size'
p751
S'14336'
p752
sS'protocol'
p753
S'arduino'
p754
sS'disable_flushing'
p755
S'true'
p756
ssS'name'
p757
S'Arduino BT w/ ATmega168'
p758
sg136
S'/usr/share/arduino/hardware/arduino'
p759
saa(lp760
S'LilyPadUSB'
p761
a(dp762
S'build'
p763
(dp764
S'core'
p765
S'arduino'
p766
sS'f_cpu'
p767
S'8000000L'
p768
sS'vid'
p769
S'0x1B4F'
p770
sS'pid'
p771
S'0x9208'
p772
sS'variant'
p773
S'leonardo'
p774
sS'mcu'
p775
S'atmega32u4'
p776
ssS'bootloader'
p777
(dp778
S'extended_fuses'
p779
S'0xce'
p780
sS'high_fuses'
p781
S'0xd8'
p782
sS'low_fuses'
p783
S'0xff'
p784
sS'lock_bits'
p785
S'0x2F'
p786
sS'file'
p787
S'Caterina-LilyPadUSB.hex'
p788
sS'path'
p789
S'caterina-LilyPadUSB'
p790
sS'unlock_bits'
p791
S'0x3F'
p792
ssS'upload'
p793
(dp794
S'speed'
p795
S'57600'
p796
sS'maximum_size'
p797
S'28672'
p798
sS'protocol'
p799
S'avr109'
p800
sS'disable_flushing'
p801
S'true'
p802
ssS'name'
p803
S'LilyPad Arduino USB'
p804
sg136
S'/usr/share/arduino/hardware/arduino'
p805
saa(lp806
S'lilypad328'
p807
a(dp808
S'build'
p809
(dp810
S'core'
p811
S'arduino'
p812
sS'mcu'
p813
S'atmega328p'
p814
sS'f_cpu'
p815
S'8000000L'
p816
sS'variant'
p817
S'standard'
p818
ssS'bootloader'
p819
(dp820
S'extended_fuses'
p821
S'0x05'
p822
sS'high_fuses'
p823
S'0xDA'
p824
sS'low_fuses'
p825
S'0xFF'
p826
sS'lock_bits'
p827
S'0x0F'
p828
sS'file'
p829
S'ATmegaBOOT_168_atmega328_pro_8MHz.hex'
p830
sS'path'
p831
S'atmega'
p832
sS'unlock_bits'
p833
S'0x3F'
p834
ssS'upload'
p835
(dp836
S'speed'
p837
S'57600'
p838
sS'maximum_size'
p839
S'30720'
p840
sS'protocol'
p841
S'arduino'
p842
ssS'name'
p843
S'LilyPad Arduino w/ ATmega328'
p844
sg136
S'/usr/share/arduino/hardware/arduino'
p845
saa(lp846
S'lilypad'
p847
a(dp848
S'build'
p849
(dp850
S'core'
p851
S'arduino'
p852
sS'mcu'
p853
S'atmega168'
p854
sS'f_cpu'
p855
S'8000000L'
p856
sS'variant'
p857
S'standard'
p858
ssS'bootloader'
p859
(dp860
S'extended_fuses'
p861
S'0x00'
p862
sS'high_fuses'
p863
S'0xdd'
p864
sS'low_fuses'
p865
S'0xe2'
p866
sS'lock_bits'
p867
S'0x0F'
p868
sS'file'
p869
S'LilyPadBOOT_168.hex'
p870
sS'path'
p871
S'lilypad'
p872
sS'unlock_bits'
p873
S'0x3F'
p874
ssS'upload'
p875
(dp876
S'speed'
p877
S'19200'
p878
sS'maximum_size'
p879
S'14336'
p880
sS'protocol'
p881
S'arduino'
p882
ssS'name'
p883
S'LilyPad Arduino w/ ATmega168'
p884
sg136
S'/usr/share/arduino/hardware/arduino'
p885
saa(lp886
S'pro5v328'
p887
a(dp888
S'build'
p889
(dp890
S'core'
p891
S'arduino'
p892
sS'mcu'
p893
S'atmega328p'
p894
sS'f_cpu'
p895
S'16000000L'
p896
sS'variant'
p897
S'standard'
p898
ssS'bootloader'
p899
(dp900
S'extended_fuses'
p901
S'0x05'
p902
sS'high_fuses'
p903
S'0xDA'
p904
sS'low_fuses'
p905
S'0xFF'
p906
sS'lock_bits'
p907
S'0x0F'
p908
sS'file'
p909
S'ATmegaBOOT_168_atmega328.hex'
p910
sS'path'
p911
S'atmega'
p912
sS'unlock_bits'
p913
S'0x3F'
p914
ssS'upload'
p915
(dp916
S'speed'
p917
S'57600'
p918
sS'maximum_size'
p919
S'30720'
p920
sS'protocol'
p921
S'arduino'
p922
ssS'name'
p923
S'Arduino Pro or Pro Mini (5V, 16 MHz) w/ ATmega328'
p924
sg136
S'/usr/share/arduino/hardware/arduino'
p925
saa(lp926
S'pro5v'
p927
a(dp928
S'build'
p929
(dp930
S'core'
p931
S'arduino'
p932
sS'mcu'
p933
S'atmega168'
p934
sS'f_cpu'
p935
S'16000000L'
p936
sS'variant'
p937
S'standard'
p938
ssS'bootloader'
p939
(dp940
S'extended_fuses'
p941
S'0x00'
p942
sS'high_fuses'
p943
S'0xdd'
p944
sS'low_fuses'
p945
S'0xff'
p946
sS'lock_bits'
p947
S'0x0F'
p948
sS'file'
p949
S'ATmegaBOOT_168_diecimila.hex'
p950
sS'path'
p951
S'atmega'
p952
sS'unlock_bits'
p953
S'0x3F'
p954
ssS'upload'
p955
(dp956
S'speed'
p957
S'19200'
p958
sS'maximum_size'
p959
S'14336'
p960
sS'protocol'
p961
S'arduino'
p962
ssS'name'
p963
S'Arduino Pro or Pro Mini (5V, 16 MHz) w/ ATmega168'
p964
sg136
S'/usr/share/arduino/hardware/arduino'
p965
saa(lp966
S'pro328'
p967
a(dp968
S'build'
p969
(dp970
S'core'
p971
S'arduino'
p972
sS'mcu'
p973
S'atmega328p'
p974
sS'f_cpu'
p975
S'8000000L'
p976
sS'variant'
p977
S'standard'
p978
ssS'bootloader'
p979
(dp980
S'extended_fuses'
p981
S'0x05'
p982
sS'high_fuses'
p983
S'0xDA'
p984
sS'low_fuses'
p985
S'0xFF'
p986
sS'lock_bits'
p987
S'0x0F'
p988
sS'file'
p989
S'ATmegaBOOT_168_atmega328_pro_8MHz.hex'
p990
sS'path'
p991
S'atmega'
p992
sS'unlock_bits'
p993
S'0x3F'
p994
ssS'upload'
p995
(dp996
S'speed'
p997
S'57600'
p998
sS'maximum_size'
p999
S'30720'
p1000
sS'protocol'
p1001
S'arduino'
p1002
ssS'name'
p1003
S'Arduino Pro or Pro Mini (3.3V, 8 MHz) w/ ATmega328'
p1004
sg136
S'/usr/share/arduino/hardware/arduino'
p1005
saa(lp1006
S'pro'
p1007
a(dp1008
S'build'
p1009
(dp1010
S'core'
p1011
S'arduino'
p1012
sS'mcu'
p1013
S'atmega168'
p1014
sS'f_cpu'
p1015
S'8000000L'
p1016
sS'variant'
p1017
S'standard'
p1018
ssS'bootloader'
p1019
(dp1020
S'extended_fuses'
p1021
S'0x00'
p1022
sS'high_fuses'
p1023
S'0xdd'
p1024
sS'low_fuses'
p1025
S'0xc6'
p1026
sS'lock_bits'
p1027
S'0x0F'
p1028
sS'file'
p1029
S'ATmegaBOOT_168_pro_8MHz.hex'
p1030
sS'path'
p1031
S'atmega'
p1032
sS'unlock_bits'
p1033
S'0x3F'
p1034
ssS'upload'
p1035
(dp1036
S'speed'
p1037
S'19200'
p1038
sS'maximum_size'
p1039
S'14336'
p1040
sS'protocol'
p1041
S'arduino'
p1042
ssS'name'
p1043
S'Arduino Pro or Pro Mini (3.3V, 8 MHz) w/ ATmega168'
p1044
sg136
S'/usr/share/arduino/hardware/arduino'
p1045
saa(lp1046
S'atmega168'
p1047
a(dp1048
S'build'
p1049
(dp1050
S'core'
p1051
S'arduino'
p1052
sS'mcu'
p1053
S'atmega168'
p1054
sS'f_cpu'
p1055
S'16000000L'
p1056
sS'variant'
p1057
S'standard'
p1058
ssS'bootloader'
p1059
(dp1060
S'extended_fuses'
p1061
S'0x00'
p1062
sS'high_fuses'
p1063
S'0xdd'
p1064
sS'low_fuses'
p1065
S'0xff'
p1066
sS'lock_bits'
p1067
S'0x0F'
p1068
sS'file'
p1069
S'ATmegaBOOT_168_ng.hex'
p1070
sS'path'
p1071
S'atmega'
p1072
sS'unlock_bits'
p1073
S'0x3F'
p1074
ssS'upload'
p1075
(dp1076
S'speed'
p1077
S'19200'
p1078
sS'maximum_size'
p1079
S'14336'
p1080
sS'protocol'
p1081
S'arduino'
p1082
ssS'name'
p1083
S'Arduino NG or older w/ ATmega168'
p1084
sg136
S'/usr/share/arduino/hardware/arduino'
p1085
saa(lp1086
S'atmega8'
p1087
a(dp1088
S'build'
p1089
(dp1090
S'core'
p1091
S'arduino'
p1092
sS'mcu'
p1093
S'atmega8'
p1094
sS'f_cpu'
p1095
S'16000000L'
p1096
sS'variant'
p1097
S'standard'
p1098
ssS'bootloader'
p1099
(dp1100
S'high_fuses'
p1101
S'0xca'
p1102
sS'low_fuses'
p1103
S'0xdf'
p1104
sS'lock_bits'
p1105
S'0x0F'
p1106
sS'file'
p1107
S'ATmegaBOOT-prod-firmware-2009-11-07.hex'
p1108
sS'path'
p1109
S'atmega8'
p1110
sS'unlock_bits'
p1111
S'0x3F'
p1112
ssS'upload'
p1113
(dp1114
S'speed'
p1115
S'19200'
p1116
sS'maximum_size'
p1117
S'7168'
p1118
sS'protocol'
p1119
S'arduino'
p1120
ssS'name'
p1121
S'Arduino NG or older w/ ATmega8'
p1122
sg136
S'/usr/share/arduino/hardware/arduino'
p1123
saa(lp1124
S'robotControl'
p1125
a(dp1126
S'build'
p1127
(dp1128
S'core'
p1129
S'robot'
p1130
sS'f_cpu'
p1131
S'16000000L'
p1132
sS'vid'
p1133
S'0x2341'
p1134
sS'pid'
p1135
S'0x8038'
p1136
sS'variant'
p1137
S'robot_control'
p1138
sS'mcu'
p1139
S'atmega32u4'
p1140
ssS'bootloader'
p1141
(dp1142
S'extended_fuses'
p1143
S'0xcb'
p1144
sS'high_fuses'
p1145
S'0xd8'
p1146
sS'low_fuses'
p1147
S'0xff'
p1148
sS'lock_bits'
p1149
S'0x2F'
p1150
sS'file'
p1151
S'Caterina-Robot-Control.hex'
p1152
sS'path'
p1153
S'caterina-Arduino_Robot'
p1154
sS'unlock_bits'
p1155
S'0x3F'
p1156
ssS'upload'
p1157
(dp1158
S'speed'
p1159
S'57600'
p1160
sS'maximum_size'
p1161
S'28672'
p1162
sS'protocol'
p1163
S'avr109'
p1164
sS'disable_flushing'
p1165
S'true'
p1166
ssS'name'
p1167
S'Arduino Robot Control'
p1168
sg136
S'/usr/share/arduino/hardware/arduino'
p1169
saa(lp1170
S'robotMotor'
p1171
a(dp1172
S'build'
p1173
(dp1174
S'core'
p1175
S'robot'
p1176
sS'f_cpu'
p1177
S'16000000L'
p1178
sS'vid'
p1179
S'0x2341'
p1180
sS'pid'
p1181
S'0x8039'
p1182
sS'variant'
p1183
S'robot_motor'
p1184
sS'mcu'
p1185
S'atmega32u4'
p1186
ssS'bootloader'
p1187
(dp1188
S'extended_fuses'
p1189
S'0xcb'
p1190
sS'high_fuses'
p1191
S'0xd8'
p1192
sS'low_fuses'
p1193
S'0xff'
p1194
sS'lock_bits'
p1195
S'0x2F'
p1196
sS'file'
p1197
S'Caterina-Robot-Motor.hex'
p1198
sS'path'
p1199
S'caterina-Arduino_Robot'
p1200
sS'unlock_bits'
p1201
S'0x3F'
p1202
ssS'upload'
p1203
(dp1204
S'speed'
p1205
S'57600'
p1206
sS'maximum_size'
p1207
S'28672'
p1208
sS'protocol'
p1209
S'avr109'
p1210
sS'disable_flushing'
p1211
S'true'
p1212
ssS'name'
p1213
S'Arduino Robot Motor'
p1214
sg136
S'/usr/share/arduino/hardware/arduino'
p1215
saatp1216
Rp1217
(dp1218
S'default'
p1219
S'uno'
p1220
sbtp1221
a(S'ldflags'
p1222
g2
(g3
g4
(lp1223
g6
aS'-Wl,-Os'
p1224
aS'-Wl,--gc-sections'
p1225
atp1226
Rp1227
tp1228
a.