(lp0
(S'cppflags'
p1
ccopy_reg
_reconstructor
p2
(cino.utils
SpaceList
p3
c__builtin__
list
p4
(lp5
S'-mmcu=atmega328p'
p6
aS'-DF_CPU=16000000L'
p7
aS'-DARDUINO=105'
p8
aS'-I/usr/share/arduino/hardware/arduino/cores/arduino'
p9
aS'-ffunction-sections'
p10
aS'-fdata-sections'
p11
aS'-g'
p12
aS'-Os'
p13
aS'-w'
p14
aS'-I/usr/share/arduino/hardware/arduino/variants/standard'
p15
aS'-I/usr/share/arduino/hardware/arduino/cores/arduino'
p16
aS'-I/usr/share/arduino/hardware/arduino/cores/arduino/avr-libc'
p17
atp18
Rp19
tp20
a(S'cxx'
p21
S'/usr/share/arduino/hardware/tools/avr/bin/avr-g++'
p22
tp23
a(S'arduino_libraries_dir'
p24
S'/usr/share/arduino/libraries'
p25
tp26
a(S'avrdude'
p27
S'/usr/share/arduino/hardware/tools/avrdude'
p28
tp29
a(S'ar'
p30
S'/usr/share/arduino/hardware/tools/avr/bin/avr-ar'
p31
tp32
a(S'names'
p33
(dp34
S'cpp'
p35
S'%s.cpp'
p36
sS'obj'
p37
S'%s.o'
p38
sS'lib'
p39
S'lib%s.a'
p40
sS'deps'
p41
S'%s.d'
p42
stp43
a(S'ldflags'
p44
g2
(g3
g4
(lp45
g6
aS'-Wl,-Os'
p46
aS'-Wl,--gc-sections'
p47
atp48
Rp49
tp50
a(S'arduino_lib_version'
p51
g2
(cino.environment
Version
p52
c__builtin__
tuple
p53
(I1
I0
I5
tp54
tp55
Rp56
tp57
a(S'objcopy'
p58
S'/usr/share/arduino/hardware/tools/avr/bin/avr-objcopy'
p59
tp60
a(S'board_models'
p61
cino.environment
BoardModels
p62
((lp63
(lp64
S'uno'
p65
a(dp66
S'_coredir'
p67
S'/usr/share/arduino/hardware/arduino'
p68
sS'bootloader'
p69
(dp70
S'extended_fuses'
p71
S'0x05'
p72
sS'high_fuses'
p73
S'0xde'
p74
sS'low_fuses'
p75
S'0xff'
p76
sS'lock_bits'
p77
S'0x0F'
p78
sS'file'
p79
S'optiboot_atmega328.hex'
p80
sS'path'
p81
S'optiboot'
p82
sS'unlock_bits'
p83
S'0x3F'
p84
ssS'upload'
p85
(dp86
S'protocol'
p87
S'arduino'
p88
sS'maximum_size'
p89
S'32256'
p90
sS'speed'
p91
S'115200'
p92
ssS'name'
p93
S'Arduino Uno'
p94
sS'build'
p95
(dp96
S'core'
p97
S'arduino'
p98
sS'mcu'
p99
S'atmega328p'
p100
sS'f_cpu'
p101
S'16000000L'
p102
sS'variant'
p103
S'standard'
p104
ssaa(lp105
S'atmega328'
p106
a(dp107
g67
S'/usr/share/arduino/hardware/arduino'
p108
sS'bootloader'
p109
(dp110
S'extended_fuses'
p111
S'0x05'
p112
sS'high_fuses'
p113
S'0xDA'
p114
sS'low_fuses'
p115
S'0xFF'
p116
sS'lock_bits'
p117
S'0x0F'
p118
sS'file'
p119
S'ATmegaBOOT_168_atmega328.hex'
p120
sS'path'
p121
S'atmega'
p122
sS'unlock_bits'
p123
S'0x3F'
p124
ssS'upload'
p125
(dp126
S'protocol'
p127
S'arduino'
p128
sS'maximum_size'
p129
S'30720'
p130
sS'speed'
p131
S'57600'
p132
ssS'name'
p133
S'Arduino Duemilanove w/ ATmega328'
p134
sS'build'
p135
(dp136
S'core'
p137
S'arduino'
p138
sS'mcu'
p139
S'atmega328p'
p140
sS'f_cpu'
p141
S'16000000L'
p142
sS'variant'
p143
S'standard'
p144
ssaa(lp145
S'diecimila'
p146
a(dp147
g67
S'/usr/share/arduino/hardware/arduino'
p148
sS'bootloader'
p149
(dp150
S'extended_fuses'
p151
S'0x00'
p152
sS'high_fuses'
p153
S'0xdd'
p154
sS'low_fuses'
p155
S'0xff'
p156
sS'lock_bits'
p157
S'0x0F'
p158
sS'file'
p159
S'ATmegaBOOT_168_diecimila.hex'
p160
sS'path'
p161
S'atmega'
p162
sS'unlock_bits'
p163
S'0x3F'
p164
ssS'upload'
p165
(dp166
S'protocol'
p167
S'arduino'
p168
sS'maximum_size'
p169
S'14336'
p170
sS'speed'
p171
S'19200'
p172
ssS'name'
p173
S'Arduino Diecimila or Duemilanove w/ ATmega168'
p174
sS'build'
p175
(dp176
S'core'
p177
S'arduino'
p178
sS'mcu'
p179
S'atmega168'
p180
sS'f_cpu'
p181
S'16000000L'
p182
sS'variant'
p183
S'standard'
p184
ssaa(lp185
S'nano328'
p186
a(dp187
g67
S'/usr/share/arduino/hardware/arduino'
p188
sS'bootloader'
p189
(dp190
S'extended_fuses'
p191
S'0x05'
p192
sS'high_fuses'
p193
S'0xDA'
p194
sS'low_fuses'
p195
S'0xFF'
p196
sS'lock_bits'
p197
S'0x0F'
p198
sS'file'
p199
S'ATmegaBOOT_168_atmega328.hex'
p200
sS'path'
p201
S'atmega'
p202
sS'unlock_bits'
p203
S'0x3F'
p204
ssS'upload'
p205
(dp206
S'protocol'
p207
S'arduino'
p208
sS'maximum_size'
p209
S'30720'
p210
sS'speed'
p211
S'57600'
p212
ssS'name'
p213
S'Arduino Nano w/ ATmega328'
p214
sS'build'
p215
(dp216
S'core'
p217
S'arduino'
p218
sS'mcu'
p219
S'atmega328p'
p220
sS'f_cpu'
p221
S'16000000L'
p222
sS'variant'
p223
S'eightanaloginputs'
p224
ssaa(lp225
S'nano'
p226
a(dp227
g67
S'/usr/share/arduino/hardware/arduino'
p228
sS'bootloader'
p229
(dp230
S'extended_fuses'
p231
S'0x00'
p232
sS'high_fuses'
p233
S'0xdd'
p234
sS'low_fuses'
p235
S'0xff'
p236
sS'lock_bits'
p237
S'0x0F'
p238
sS'file'
p239
S'ATmegaBOOT_168_diecimila.hex'
p240
sS'path'
p241
S'atmega'
p242
sS'unlock_bits'
p243
S'0x3F'
p244
ssS'upload'
p245
(dp246
S'protocol'
p247
S'arduino'
p248
sS'maximum_size'
p249
S'14336'
p250
sS'speed'
p251
S'19200'
p252
ssS'name'
p253
S'Arduino Nano w/ ATmega168'
p254
sS'build'
p255
(dp256
S'core'
p257
S'arduino'
p258
sS'mcu'
p259
S'atmega168'
p260
sS'f_cpu'
p261
S'16000000L'
p262
sS'variant'
p263
S'eightanaloginputs'
p264
ssaa(lp265
S'mega2560'
p266
a(dp267
g67
S'/usr/share/arduino/hardware/arduino'
p268
sS'bootloader'
p269
(dp270
S'extended_fuses'
p271
S'0xFD'
p272
sS'high_fuses'
p273
S'0xD8'
p274
sS'low_fuses'
p275
S'0xFF'
p276
sS'lock_bits'
p277
S'0x0F'
p278
sS'file'
p279
S'stk500boot_v2_mega2560.hex'
p280
sS'path'
p281
S'stk500v2'
p282
sS'unlock_bits'
p283
S'0x3F'
p284
ssS'upload'
p285
(dp286
S'protocol'
p287
S'wiring'
p288
sS'maximum_size'
p289
S'258048'
p290
sS'speed'
p291
S'115200'
p292
ssS'name'
p293
S'Arduino Mega 2560 or Mega ADK'
p294
sS'build'
p295
(dp296
S'core'
p297
S'arduino'
p298
sS'mcu'
p299
S'atmega2560'
p300
sS'f_cpu'
p301
S'16000000L'
p302
sS'variant'
p303
S'mega'
p304
ssaa(lp305
S'mega'
p306
a(dp307
g67
S'/usr/share/arduino/hardware/arduino'
p308
sS'bootloader'
p309
(dp310
S'extended_fuses'
p311
S'0xF5'
p312
sS'high_fuses'
p313
S'0xDA'
p314
sS'low_fuses'
p315
S'0xFF'
p316
sS'lock_bits'
p317
S'0x0F'
p318
sS'file'
p319
S'ATmegaBOOT_168_atmega1280.hex'
p320
sS'path'
p321
S'atmega'
p322
sS'unlock_bits'
p323
S'0x3F'
p324
ssS'upload'
p325
(dp326
S'protocol'
p327
S'arduino'
p328
sS'maximum_size'
p329
S'126976'
p330
sS'speed'
p331
S'57600'
p332
ssS'name'
p333
S'Arduino Mega (ATmega1280)'
p334
sS'build'
p335
(dp336
S'core'
p337
S'arduino'
p338
sS'mcu'
p339
S'atmega1280'
p340
sS'f_cpu'
p341
S'16000000L'
p342
sS'variant'
p343
S'mega'
p344
ssaa(lp345
S'leonardo'
p346
a(dp347
g67
S'/usr/share/arduino/hardware/arduino'
p348
sS'bootloader'
p349
(dp350
S'extended_fuses'
p351
S'0xcb'
p352
sS'high_fuses'
p353
S'0xd8'
p354
sS'low_fuses'
p355
S'0xff'
p356
sS'lock_bits'
p357
S'0x2F'
p358
sS'file'
p359
S'Caterina-Leonardo.hex'
p360
sS'path'
p361
S'caterina'
p362
sS'unlock_bits'
p363
S'0x3F'
p364
ssS'upload'
p365
(dp366
S'protocol'
p367
S'avr109'
p368
sS'maximum_size'
p369
S'28672'
p370
sS'speed'
p371
S'57600'
p372
sS'disable_flushing'
p373
S'true'
p374
ssS'name'
p375
S'Arduino Leonardo'
p376
sS'build'
p377
(dp378
S'core'
p379
S'arduino'
p380
sS'f_cpu'
p381
S'16000000L'
p382
sS'vid'
p383
S'0x2341'
p384
sS'pid'
p385
S'0x8036'
p386
sS'variant'
p387
S'leonardo'
p388
sS'mcu'
p389
S'atmega32u4'
p390
ssaa(lp391
S'esplora'
p392
a(dp393
g67
S'/usr/share/arduino/hardware/arduino'
p394
sS'bootloader'
p395
(dp396
S'extended_fuses'
p397
S'0xcb'
p398
sS'high_fuses'
p399
S'0xd8'
p400
sS'low_fuses'
p401
S'0xff'
p402
sS'lock_bits'
p403
S'0x2F'
p404
sS'file'
p405
S'Caterina-Esplora.hex'
p406
sS'path'
p407
S'caterina'
p408
sS'unlock_bits'
p409
S'0x3F'
p410
ssS'upload'
p411
(dp412
S'protocol'
p413
S'avr109'
p414
sS'maximum_size'
p415
S'28672'
p416
sS'speed'
p417
S'57600'
p418
sS'disable_flushing'
p419
S'true'
p420
ssS'name'
p421
S'Arduino Esplora'
p422
sS'build'
p423
(dp424
S'core'
p425
S'arduino'
p426
sS'f_cpu'
p427
S'16000000L'
p428
sS'vid'
p429
S'0x2341'
p430
sS'pid'
p431
S'0x803C'
p432
sS'variant'
p433
S'leonardo'
p434
sS'mcu'
p435
S'atmega32u4'
p436
ssaa(lp437
S'micro'
p438
a(dp439
g67
S'/usr/share/arduino/hardware/arduino'
p440
sS'bootloader'
p441
(dp442
S'extended_fuses'
p443
S'0xcb'
p444
sS'high_fuses'
p445
S'0xd8'
p446
sS'low_fuses'
p447
S'0xff'
p448
sS'lock_bits'
p449
S'0x2F'
p450
sS'file'
p451
S'Caterina-Micro.hex'
p452
sS'path'
p453
S'caterina'
p454
sS'unlock_bits'
p455
S'0x3F'
p456
ssS'upload'
p457
(dp458
S'protocol'
p459
S'avr109'
p460
sS'maximum_size'
p461
S'28672'
p462
sS'speed'
p463
S'57600'
p464
sS'disable_flushing'
p465
S'true'
p466
ssS'name'
p467
S'Arduino Micro'
p468
sS'build'
p469
(dp470
S'core'
p471
S'arduino'
p472
sS'f_cpu'
p473
S'16000000L'
p474
sS'vid'
p475
S'0x2341'
p476
sS'pid'
p477
S'0x8037'
p478
sS'variant'
p479
S'micro'
p480
sS'mcu'
p481
S'atmega32u4'
p482
ssaa(lp483
S'mini328'
p484
a(dp485
g67
S'/usr/share/arduino/hardware/arduino'
p486
sS'bootloader'
p487
(dp488
S'extended_fuses'
p489
S'0x05'
p490
sS'high_fuses'
p491
S'0xd8'
p492
sS'low_fuses'
p493
S'0xff'
p494
sS'lock_bits'
p495
S'0x0F'
p496
sS'file'
p497
S'optiboot_atmega328-Mini.hex'
p498
sS'path'
p499
S'optiboot'
p500
sS'unlock_bits'
p501
S'0x3F'
p502
ssS'upload'
p503
(dp504
S'protocol'
p505
S'arduino'
p506
sS'maximum_size'
p507
S'28672'
p508
sS'speed'
p509
S'115200'
p510
ssS'name'
p511
S'Arduino Mini w/ ATmega328'
p512
sS'build'
p513
(dp514
S'core'
p515
S'arduino'
p516
sS'mcu'
p517
S'atmega328p'
p518
sS'f_cpu'
p519
S'16000000L'
p520
sS'variant'
p521
S'eightanaloginputs'
p522
ssaa(lp523
S'mini'
p524
a(dp525
g67
S'/usr/share/arduino/hardware/arduino'
p526
sS'bootloader'
p527
(dp528
S'extended_fuses'
p529
S'0x00'
p530
sS'high_fuses'
p531
S'0xdd'
p532
sS'low_fuses'
p533
S'0xff'
p534
sS'lock_bits'
p535
S'0x0F'
p536
sS'file'
p537
S'ATmegaBOOT_168_ng.hex'
p538
sS'path'
p539
S'atmega'
p540
sS'unlock_bits'
p541
S'0x3F'
p542
ssS'upload'
p543
(dp544
S'protocol'
p545
S'arduino'
p546
sS'maximum_size'
p547
S'14336'
p548
sS'speed'
p549
S'19200'
p550
ssS'name'
p551
S'Arduino Mini w/ ATmega168'
p552
sS'build'
p553
(dp554
S'core'
p555
S'arduino'
p556
sS'mcu'
p557
S'atmega168'
p558
sS'f_cpu'
p559
S'16000000L'
p560
sS'variant'
p561
S'eightanaloginputs'
p562
ssaa(lp563
S'ethernet'
p564
a(dp565
g67
S'/usr/share/arduino/hardware/arduino'
p566
sS'bootloader'
p567
(dp568
S'extended_fuses'
p569
S'0x05'
p570
sS'high_fuses'
p571
S'0xde'
p572
sS'low_fuses'
p573
S'0xff'
p574
sS'lock_bits'
p575
S'0x0F'
p576
sS'file'
p577
S'optiboot_atmega328.hex'
p578
sS'path'
p579
S'optiboot'
p580
sS'unlock_bits'
p581
S'0x3F'
p582
ssS'upload'
p583
(dp584
S'protocol'
p585
S'arduino'
p586
sS'maximum_size'
p587
S'32256'
p588
sS'speed'
p589
S'115200'
p590
ssS'name'
p591
S'Arduino Ethernet'
p592
sS'build'
p593
(dp594
S'variant'
p595
S'standard'
p596
sS'mcu'
p597
S'atmega328p'
p598
sS'f_cpu'
p599
S'16000000L'
p600
sS'core'
p601
S'arduino'
p602
ssaa(lp603
S'fio'
p604
a(dp605
g67
S'/usr/share/arduino/hardware/arduino'
p606
sS'bootloader'
p607
(dp608
S'extended_fuses'
p609
S'0x05'
p610
sS'high_fuses'
p611
S'0xDA'
p612
sS'low_fuses'
p613
S'0xFF'
p614
sS'lock_bits'
p615
S'0x0F'
p616
sS'file'
p617
S'ATmegaBOOT_168_atmega328_pro_8MHz.hex'
p618
sS'path'
p619
S'arduino:atmega'
p620
sS'unlock_bits'
p621
S'0x3F'
p622
ssS'upload'
p623
(dp624
S'protocol'
p625
S'arduino'
p626
sS'maximum_size'
p627
S'30720'
p628
sS'speed'
p629
S'57600'
p630
ssS'name'
p631
S'Arduino Fio'
p632
sS'build'
p633
(dp634
S'core'
p635
S'arduino'
p636
sS'mcu'
p637
S'atmega328p'
p638
sS'f_cpu'
p639
S'8000000L'
p640
sS'variant'
p641
S'eightanaloginputs'
p642
ssaa(lp643
S'bt328'
p644
a(dp645
g67
S'/usr/share/arduino/hardware/arduino'
p646
sS'bootloader'
p647
(dp648
S'extended_fuses'
p649
S'0x05'
p650
sS'high_fuses'
p651
S'0xd8'
p652
sS'low_fuses'
p653
S'0xff'
p654
sS'lock_bits'
p655
S'0x0F'
p656
sS'file'
p657
S'ATmegaBOOT_168_atmega328_bt.hex'
p658
sS'path'
p659
S'bt'
p660
sS'unlock_bits'
p661
S'0x3F'
p662
ssS'upload'
p663
(dp664
S'protocol'
p665
S'arduino'
p666
sS'maximum_size'
p667
S'28672'
p668
sS'speed'
p669
S'19200'
p670
sS'disable_flushing'
p671
S'true'
p672
ssS'name'
p673
S'Arduino BT w/ ATmega328'
p674
sS'build'
p675
(dp676
S'core'
p677
S'arduino'
p678
sS'mcu'
p679
S'atmega328p'
p680
sS'f_cpu'
p681
S'16000000L'
p682
sS'variant'
p683
S'eightanaloginputs'
p684
ssaa(lp685
S'bt'
p686
a(dp687
g67
S'/usr/share/arduino/hardware/arduino'
p688
sS'bootloader'
p689
(dp690
S'extended_fuses'
p691
S'0x00'
p692
sS'high_fuses'
p693
S'0xdd'
p694
sS'low_fuses'
p695
S'0xff'
p696
sS'lock_bits'
p697
S'0x0F'
p698
sS'file'
p699
S'ATmegaBOOT_168.hex'
p700
sS'path'
p701
S'bt'
p702
sS'unlock_bits'
p703
S'0x3F'
p704
ssS'upload'
p705
(dp706
S'protocol'
p707
S'arduino'
p708
sS'maximum_size'
p709
S'14336'
p710
sS'speed'
p711
S'19200'
p712
sS'disable_flushing'
p713
S'true'
p714
ssS'name'
p715
S'Arduino BT w/ ATmega168'
p716
sS'build'
p717
(dp718
S'core'
p719
S'arduino'
p720
sS'mcu'
p721
S'atmega168'
p722
sS'f_cpu'
p723
S'16000000L'
p724
sS'variant'
p725
S'eightanaloginputs'
p726
ssaa(lp727
S'LilyPadUSB'
p728
a(dp729
g67
S'/usr/share/arduino/hardware/arduino'
p730
sS'bootloader'
p731
(dp732
S'extended_fuses'
p733
S'0xce'
p734
sS'high_fuses'
p735
S'0xd8'
p736
sS'low_fuses'
p737
S'0xff'
p738
sS'lock_bits'
p739
S'0x2F'
p740
sS'file'
p741
S'Caterina-LilyPadUSB.hex'
p742
sS'path'
p743
S'caterina-LilyPadUSB'
p744
sS'unlock_bits'
p745
S'0x3F'
p746
ssS'upload'
p747
(dp748
S'protocol'
p749
S'avr109'
p750
sS'maximum_size'
p751
S'28672'
p752
sS'speed'
p753
S'57600'
p754
sS'disable_flushing'
p755
S'true'
p756
ssS'name'
p757
S'LilyPad Arduino USB'
p758
sS'build'
p759
(dp760
S'core'
p761
S'arduino'
p762
sS'f_cpu'
p763
S'8000000L'
p764
sS'vid'
p765
S'0x1B4F'
p766
sS'pid'
p767
S'0x9208'
p768
sS'variant'
p769
S'leonardo'
p770
sS'mcu'
p771
S'atmega32u4'
p772
ssaa(lp773
S'lilypad328'
p774
a(dp775
g67
S'/usr/share/arduino/hardware/arduino'
p776
sS'bootloader'
p777
(dp778
S'extended_fuses'
p779
S'0x05'
p780
sS'high_fuses'
p781
S'0xDA'
p782
sS'low_fuses'
p783
S'0xFF'
p784
sS'lock_bits'
p785
S'0x0F'
p786
sS'file'
p787
S'ATmegaBOOT_168_atmega328_pro_8MHz.hex'
p788
sS'path'
p789
S'atmega'
p790
sS'unlock_bits'
p791
S'0x3F'
p792
ssS'upload'
p793
(dp794
S'protocol'
p795
S'arduino'
p796
sS'maximum_size'
p797
S'30720'
p798
sS'speed'
p799
S'57600'
p800
ssS'name'
p801
S'LilyPad Arduino w/ ATmega328'
p802
sS'build'
p803
(dp804
S'core'
p805
S'arduino'
p806
sS'mcu'
p807
S'atmega328p'
p808
sS'f_cpu'
p809
S'8000000L'
p810
sS'variant'
p811
S'standard'
p812
ssaa(lp813
S'lilypad'
p814
a(dp815
g67
S'/usr/share/arduino/hardware/arduino'
p816
sS'bootloader'
p817
(dp818
S'extended_fuses'
p819
S'0x00'
p820
sS'high_fuses'
p821
S'0xdd'
p822
sS'low_fuses'
p823
S'0xe2'
p824
sS'lock_bits'
p825
S'0x0F'
p826
sS'file'
p827
S'LilyPadBOOT_168.hex'
p828
sS'path'
p829
S'lilypad'
p830
sS'unlock_bits'
p831
S'0x3F'
p832
ssS'upload'
p833
(dp834
S'protocol'
p835
S'arduino'
p836
sS'maximum_size'
p837
S'14336'
p838
sS'speed'
p839
S'19200'
p840
ssS'name'
p841
S'LilyPad Arduino w/ ATmega168'
p842
sS'build'
p843
(dp844
S'core'
p845
S'arduino'
p846
sS'mcu'
p847
S'atmega168'
p848
sS'f_cpu'
p849
S'8000000L'
p850
sS'variant'
p851
S'standard'
p852
ssaa(lp853
S'pro5v328'
p854
a(dp855
g67
S'/usr/share/arduino/hardware/arduino'
p856
sS'bootloader'
p857
(dp858
S'extended_fuses'
p859
S'0x05'
p860
sS'high_fuses'
p861
S'0xDA'
p862
sS'low_fuses'
p863
S'0xFF'
p864
sS'lock_bits'
p865
S'0x0F'
p866
sS'file'
p867
S'ATmegaBOOT_168_atmega328.hex'
p868
sS'path'
p869
S'atmega'
p870
sS'unlock_bits'
p871
S'0x3F'
p872
ssS'upload'
p873
(dp874
S'protocol'
p875
S'arduino'
p876
sS'maximum_size'
p877
S'30720'
p878
sS'speed'
p879
S'57600'
p880
ssS'name'
p881
S'Arduino Pro or Pro Mini (5V, 16 MHz) w/ ATmega328'
p882
sS'build'
p883
(dp884
S'core'
p885
S'arduino'
p886
sS'mcu'
p887
S'atmega328p'
p888
sS'f_cpu'
p889
S'16000000L'
p890
sS'variant'
p891
S'standard'
p892
ssaa(lp893
S'pro5v'
p894
a(dp895
g67
S'/usr/share/arduino/hardware/arduino'
p896
sS'bootloader'
p897
(dp898
S'extended_fuses'
p899
S'0x00'
p900
sS'high_fuses'
p901
S'0xdd'
p902
sS'low_fuses'
p903
S'0xff'
p904
sS'lock_bits'
p905
S'0x0F'
p906
sS'file'
p907
S'ATmegaBOOT_168_diecimila.hex'
p908
sS'path'
p909
S'atmega'
p910
sS'unlock_bits'
p911
S'0x3F'
p912
ssS'upload'
p913
(dp914
S'protocol'
p915
S'arduino'
p916
sS'maximum_size'
p917
S'14336'
p918
sS'speed'
p919
S'19200'
p920
ssS'name'
p921
S'Arduino Pro or Pro Mini (5V, 16 MHz) w/ ATmega168'
p922
sS'build'
p923
(dp924
S'core'
p925
S'arduino'
p926
sS'mcu'
p927
S'atmega168'
p928
sS'f_cpu'
p929
S'16000000L'
p930
sS'variant'
p931
S'standard'
p932
ssaa(lp933
S'pro328'
p934
a(dp935
g67
S'/usr/share/arduino/hardware/arduino'
p936
sS'bootloader'
p937
(dp938
S'extended_fuses'
p939
S'0x05'
p940
sS'high_fuses'
p941
S'0xDA'
p942
sS'low_fuses'
p943
S'0xFF'
p944
sS'lock_bits'
p945
S'0x0F'
p946
sS'file'
p947
S'ATmegaBOOT_168_atmega328_pro_8MHz.hex'
p948
sS'path'
p949
S'atmega'
p950
sS'unlock_bits'
p951
S'0x3F'
p952
ssS'upload'
p953
(dp954
S'protocol'
p955
S'arduino'
p956
sS'maximum_size'
p957
S'30720'
p958
sS'speed'
p959
S'57600'
p960
ssS'name'
p961
S'Arduino Pro or Pro Mini (3.3V, 8 MHz) w/ ATmega328'
p962
sS'build'
p963
(dp964
S'core'
p965
S'arduino'
p966
sS'mcu'
p967
S'atmega328p'
p968
sS'f_cpu'
p969
S'8000000L'
p970
sS'variant'
p971
S'standard'
p972
ssaa(lp973
S'pro'
p974
a(dp975
g67
S'/usr/share/arduino/hardware/arduino'
p976
sS'bootloader'
p977
(dp978
S'extended_fuses'
p979
S'0x00'
p980
sS'high_fuses'
p981
S'0xdd'
p982
sS'low_fuses'
p983
S'0xc6'
p984
sS'lock_bits'
p985
S'0x0F'
p986
sS'file'
p987
S'ATmegaBOOT_168_pro_8MHz.hex'
p988
sS'path'
p989
S'atmega'
p990
sS'unlock_bits'
p991
S'0x3F'
p992
ssS'upload'
p993
(dp994
S'protocol'
p995
S'arduino'
p996
sS'maximum_size'
p997
S'14336'
p998
sS'speed'
p999
S'19200'
p1000
ssS'name'
p1001
S'Arduino Pro or Pro Mini (3.3V, 8 MHz) w/ ATmega168'
p1002
sS'build'
p1003
(dp1004
S'core'
p1005
S'arduino'
p1006
sS'mcu'
p1007
S'atmega168'
p1008
sS'f_cpu'
p1009
S'8000000L'
p1010
sS'variant'
p1011
S'standard'
p1012
ssaa(lp1013
S'atmega168'
p1014
a(dp1015
g67
S'/usr/share/arduino/hardware/arduino'
p1016
sS'bootloader'
p1017
(dp1018
S'extended_fuses'
p1019
S'0x00'
p1020
sS'high_fuses'
p1021
S'0xdd'
p1022
sS'low_fuses'
p1023
S'0xff'
p1024
sS'lock_bits'
p1025
S'0x0F'
p1026
sS'file'
p1027
S'ATmegaBOOT_168_ng.hex'
p1028
sS'path'
p1029
S'atmega'
p1030
sS'unlock_bits'
p1031
S'0x3F'
p1032
ssS'upload'
p1033
(dp1034
S'protocol'
p1035
S'arduino'
p1036
sS'maximum_size'
p1037
S'14336'
p1038
sS'speed'
p1039
S'19200'
p1040
ssS'name'
p1041
S'Arduino NG or older w/ ATmega168'
p1042
sS'build'
p1043
(dp1044
S'core'
p1045
S'arduino'
p1046
sS'mcu'
p1047
S'atmega168'
p1048
sS'f_cpu'
p1049
S'16000000L'
p1050
sS'variant'
p1051
S'standard'
p1052
ssaa(lp1053
S'atmega8'
p1054
a(dp1055
g67
S'/usr/share/arduino/hardware/arduino'
p1056
sS'bootloader'
p1057
(dp1058
S'high_fuses'
p1059
S'0xca'
p1060
sS'low_fuses'
p1061
S'0xdf'
p1062
sS'lock_bits'
p1063
S'0x0F'
p1064
sS'file'
p1065
S'ATmegaBOOT-prod-firmware-2009-11-07.hex'
p1066
sS'path'
p1067
S'atmega8'
p1068
sS'unlock_bits'
p1069
S'0x3F'
p1070
ssS'upload'
p1071
(dp1072
S'protocol'
p1073
S'arduino'
p1074
sS'maximum_size'
p1075
S'7168'
p1076
sS'speed'
p1077
S'19200'
p1078
ssS'name'
p1079
S'Arduino NG or older w/ ATmega8'
p1080
sS'build'
p1081
(dp1082
S'core'
p1083
S'arduino'
p1084
sS'mcu'
p1085
S'atmega8'
p1086
sS'f_cpu'
p1087
S'16000000L'
p1088
sS'variant'
p1089
S'standard'
p1090
ssaa(lp1091
S'robotControl'
p1092
a(dp1093
g67
S'/usr/share/arduino/hardware/arduino'
p1094
sS'bootloader'
p1095
(dp1096
S'extended_fuses'
p1097
S'0xcb'
p1098
sS'high_fuses'
p1099
S'0xd8'
p1100
sS'low_fuses'
p1101
S'0xff'
p1102
sS'lock_bits'
p1103
S'0x2F'
p1104
sS'file'
p1105
S'Caterina-Robot-Control.hex'
p1106
sS'path'
p1107
S'caterina-Arduino_Robot'
p1108
sS'unlock_bits'
p1109
S'0x3F'
p1110
ssS'upload'
p1111
(dp1112
S'protocol'
p1113
S'avr109'
p1114
sS'maximum_size'
p1115
S'28672'
p1116
sS'speed'
p1117
S'57600'
p1118
sS'disable_flushing'
p1119
S'true'
p1120
ssS'name'
p1121
S'Arduino Robot Control'
p1122
sS'build'
p1123
(dp1124
S'core'
p1125
S'robot'
p1126
sS'f_cpu'
p1127
S'16000000L'
p1128
sS'vid'
p1129
S'0x2341'
p1130
sS'pid'
p1131
S'0x8038'
p1132
sS'variant'
p1133
S'robot_control'
p1134
sS'mcu'
p1135
S'atmega32u4'
p1136
ssaa(lp1137
S'robotMotor'
p1138
a(dp1139
g67
S'/usr/share/arduino/hardware/arduino'
p1140
sS'bootloader'
p1141
(dp1142
S'extended_fuses'
p1143
S'0xcb'
p1144
sS'high_fuses'
p1145
S'0xd8'
p1146
sS'low_fuses'
p1147
S'0xff'
p1148
sS'lock_bits'
p1149
S'0x2F'
p1150
sS'file'
p1151
S'Caterina-Robot-Motor.hex'
p1152
sS'path'
p1153
S'caterina-Arduino_Robot'
p1154
sS'unlock_bits'
p1155
S'0x3F'
p1156
ssS'upload'
p1157
(dp1158
S'protocol'
p1159
S'avr109'
p1160
sS'maximum_size'
p1161
S'28672'
p1162
sS'speed'
p1163
S'57600'
p1164
sS'disable_flushing'
p1165
S'true'
p1166
ssS'name'
p1167
S'Arduino Robot Motor'
p1168
sS'build'
p1169
(dp1170
S'core'
p1171
S'robot'
p1172
sS'f_cpu'
p1173
S'16000000L'
p1174
sS'vid'
p1175
S'0x2341'
p1176
sS'pid'
p1177
S'0x8039'
p1178
sS'variant'
p1179
S'robot_motor'
p1180
sS'mcu'
p1181
S'atmega32u4'
p1182
ssaatp1183
Rp1184
(dp1185
S'default'
p1186
S'uno'
p1187
sbtp1188
a(S'used_libs'
p1189
(lp1190
S'/usr/share/arduino/hardware/arduino/cores/arduino'
p1191
atp1192
a(S'make'
p1193
S'/usr/share/arduino/hardware/tools/avr/bin/make'
p1194
tp1195
a(S'build_dir'
p1196
S'.build/uno'
p1197
tp1198
a(S'cc'
p1199
S'/usr/share/arduino/hardware/tools/avr/bin/avr-gcc'
p1200
tp1201
a(S'cflags'
p1202
g2
(g3
g4
(lp1203
tp1204
Rp1205
tp1206
a(S'cxxflags'
p1207
g2
(g3
g4
(lp1208
S'-fno-exceptions'
p1209
atp1210
Rp1211
tp1212
a(S'arduino_variants_dir'
p1213
S'/usr/share/arduino/hardware/arduino/variants'
p1214
tp1215
a(S'stty'
p1216
S'/bin/stty'
p1217
tp1218
a(S'version.txt'
p1219
S'/usr/share/arduino/lib/version.txt'
p1220
tp1221
a(S'arduino_core_dir'
p1222
g1191
tp1223
a(S'boards.txt'
p1224
(lp1225
S'/usr/share/arduino/hardware/arduino/boards.txt'
p1226
atp1227
a(S'avrdude.conf'
p1228
S'/usr/share/arduino/hardware/tools/avrdude.conf'
p1229
tp1230
a(S'deps'
p1231
g2
(g3
g4
(lp1232
S'.build/uno/src/dependencies.d'
p1233
aS'.build/uno/arduino/dependencies.d'
p1234
atp1235
Rp1236
tp1237
a.